; Function Attrs: cold nounwind optsize uwtable
define internal noundef i32 @escape124_decode_close(ptr noundef readonly captures(none) %0) #0 {
  %2 = getelementptr inbounds nuw i8, ptr %0, i64 32
  %3 = load ptr, ptr %2, align 8, !tbaa !4
  %invariant.gep = getelementptr inbounds nuw i8, ptr %3, i64 24
  br label %4

4:                                                ; preds = %1, %4
  %indvars.iv = phi i64 [ 0, %1 ], [ %indvars.iv.next, %4 ]
  %5 = shl nuw nsw i64 %indvars.iv, 4
  %gep = getelementptr inbounds nuw i8, ptr %invariant.gep, i64 %5
  tail call void @av_freep(ptr noundef nonnull %gep) #7
  %indvars.iv.next = add nuw nsw i64 %indvars.iv, 1
  %exitcond.not = icmp eq i64 %indvars.iv.next, 3
  br i1 %exitcond.not, label %6, label %4, !llvm.loop !60

6:                                                ; preds = %4
  tail call void @av_frame_free(ptr noundef nonnull %3) #7
  ret i32 0
}